target datalayout = "e-m:e-p270:32:32-p271:32:32-p272:64:64-i64:64-i128:128-f80:128-n8:16:32:64-S128"
target triple = "x86_64-pc-linux-gnu"

%struct.StringInfoData = type { ptr, i32, i32, i32 }

; Function Attrs: nounwind uwtable
define dso_local ptr @pg_get_querydef(ptr noundef %0, i1 noundef zeroext %1) #0 {
  %3 = alloca ptr, align 8
  %4 = alloca i8, align 1
  %5 = alloca %struct.StringInfoData, align 8
  %6 = alloca i32, align 4
  store ptr %0, ptr %3, align 8
  %7 = zext i1 %1 to i8
  store i8 %7, ptr %4, align 1
  call void @llvm.lifetime.start.p0(i64 24, ptr %5) #10
  call void @llvm.lifetime.start.p0(i64 4, ptr %6) #10
  %8 = load i8, ptr %4, align 1, !range !4, !noundef !5
  %9 = trunc i8 %8 to i1
  %10 = select i1 %9, i32 7, i32 2
  store i32 %10, ptr %6, align 4
  call void @initStringInfo(ptr noundef %5)
  %11 = load ptr, ptr %3, align 8
  %12 = load i32, ptr %6, align 4
  call void @get_query_def(ptr noundef %11, ptr noundef %5, ptr noundef null, ptr noundef null, i1 noundef zeroext true, i32 noundef %12, i32 noundef 0, i32 noundef 0)
  %13 = getelementptr inbounds nuw %struct.StringInfoData, ptr %5, i32 0, i32 0
  %14 = load ptr, ptr %13, align 8
  call void @llvm.lifetime.end.p0(i64 4, ptr %6) #10
  call void @llvm.lifetime.end.p0(i64 24, ptr %5) #10
  ret ptr %14
}