; Function Attrs: nounwind uwtable
define dso_local ptr @pg_get_querydef(ptr noundef %0, i1 noundef zeroext %1) local_unnamed_addr #0 {
  %3 = alloca %struct.StringInfoData, align 8
  call void @llvm.lifetime.start.p0(i64 24, ptr nonnull %3) #11
  %4 = select i1 %1, i32 7, i32 2
  call void @initStringInfo(ptr noundef nonnull %3) #11
  call fastcc void @get_query_def(ptr noundef %0, ptr noundef nonnull %3, ptr noundef null, ptr noundef null, i1 noundef zeroext true, i32 noundef %4, i32 noundef 0, i32 noundef 0)
  %5 = load ptr, ptr %3, align 8
  call void @llvm.lifetime.end.p0(i64 24, ptr nonnull %3) #11
  ret ptr %5
}